target datalayout = "e-m:e-p270:32:32-p271:32:32-p272:64:64-i64:64-i128:128-f80:128-n8:16:32:64-S128"
target triple = "x86_64-pc-linux-gnu"

%struct.rb_symbols_t = type { i32, ptr, i64, i64 }
%struct.RBasic = type { i64, i64 }
%struct.RString = type { %struct.RBasic, i64, %union.anon }
%union.anon = type { %struct.anon }
%struct.anon = type { ptr, %union.anon.0 }
%union.anon.0 = type { i64 }
%struct.OnigEncodingTypeST = type { ptr, ptr, i32, i32, ptr, ptr, ptr, ptr, ptr, ptr, ptr, ptr, ptr, ptr, ptr, ptr, ptr, i32, i32 }
%struct.anon.1 = type { [1 x i8] }

@ruby_global_symbols = hidden global { i32, [4 x i8], ptr, i64, i64 } { i32 246, [4 x i8] zeroinitializer, ptr null, i64 0, i64 0 }, align 8
@.str.5 = private unnamed_addr constant [12 x i8] c"../symbol.c\00", align 1
@rb_eRuntimeError = external global i64, align 8
@ruby_single_main_ractor = external global ptr, align 8
@.str.108 = private unnamed_addr constant [36 x i8] c"symbol table overflow (symbol %li\0B)\00", align 1
@rb_eEncodingError = external global i64, align 8
@.str.110 = private unnamed_addr constant [37 x i8] c"invalid symbol in encoding %s :%+li\0B\00", align 1

; Function Attrs: inlinehint nounwind sspstrong willreturn memory(read) uwtable
define internal i64 @RB_FL_TEST_RAW(i64 noundef %0, i64 noundef %1) #8 {
  %3 = alloca i64, align 8
  %4 = alloca i64, align 8
  store i64 %0, ptr %3, align 8, !tbaa !11
  store i64 %1, ptr %4, align 8, !tbaa !11
  %5 = load i64, ptr %3, align 8, !tbaa !11
  %6 = inttoptr i64 %5 to ptr
  %7 = getelementptr inbounds nuw %struct.RBasic, ptr %6, i32 0, i32 0
  %8 = load i64, ptr %7, align 8, !tbaa !93
  %9 = load i64, ptr %4, align 8, !tbaa !11
  %10 = and i64 %8, %9
  ret i64 %10
}

; Function Attrs: inlinehint nounwind sspstrong willreturn memory(read) uwtable
define internal zeroext i1 @RB_FL_ANY_RAW(i64 noundef %0, i64 noundef %1) #8 {
  %3 = alloca i64, align 8
  %4 = alloca i64, align 8
  store i64 %0, ptr %3, align 8, !tbaa !11
  store i64 %1, ptr %4, align 8, !tbaa !11
  %5 = load i64, ptr %3, align 8, !tbaa !11
  %6 = load i64, ptr %4, align 8, !tbaa !11
  %7 = call i64 @RB_FL_TEST_RAW(i64 noundef %5, i64 noundef %6) #27
  %8 = icmp ne i64 %7, 0
  ret i1 %8
}

; Function Attrs: inlinehint nounwind sspstrong uwtable
define internal zeroext i1 @rb_multi_ractor_p() #4 {
  %1 = alloca i1, align 1
  %2 = load ptr, ptr @ruby_single_main_ractor, align 8, !tbaa !94
  %3 = icmp ne ptr %2, null
  %4 = xor i1 %3, true
  %5 = xor i1 %4, true
  %6 = zext i1 %5 to i32
  %7 = sext i32 %6 to i64
  %8 = call i64 @llvm.expect.i64(i64 %7, i64 1)
  %9 = icmp ne i64 %8, 0
  br i1 %9, label %10, label %11

10:                                               ; preds = %0
  store i1 false, ptr %1, align 1
  br label %12

11:                                               ; preds = %0
  store i1 true, ptr %1, align 1
  br label %12

12:                                               ; preds = %11, %10
  %13 = load i1, ptr %1, align 1
  ret i1 %13
}

; Function Attrs: inlinehint nounwind sspstrong willreturn memory(read, argmem: readwrite) uwtable
define internal void @rbimpl_rstring_getmem(ptr dead_on_unwind noalias writable sret(%struct.RString) align 8 %0, i64 noundef %1) #18 {
  %3 = alloca i64, align 8
  store i64 %1, ptr %3, align 8, !tbaa !11
  %4 = load i64, ptr %3, align 8, !tbaa !11
  %5 = call zeroext i1 @RB_FL_ANY_RAW(i64 noundef %4, i64 noundef 8192) #27
  br i1 %5, label %6, label %9

6:                                                ; preds = %2
  %7 = load i64, ptr %3, align 8, !tbaa !11
  %8 = inttoptr i64 %7 to ptr
  call void @llvm.memcpy.p0.p0.i64(ptr align 8 %0, ptr align 8 %8, i64 40, i1 false), !tbaa.struct !99
  br label %20

9:                                                ; preds = %2
  %10 = load i64, ptr %3, align 8, !tbaa !11
  %11 = call i64 @RSTRING_LEN(i64 noundef %10) #27
  %12 = getelementptr inbounds nuw %struct.RString, ptr %0, i32 0, i32 1
  store i64 %11, ptr %12, align 8, !tbaa !96
  %13 = load i64, ptr %3, align 8, !tbaa !11
  %14 = inttoptr i64 %13 to ptr
  %15 = getelementptr inbounds nuw %struct.RString, ptr %14, i32 0, i32 2
  %16 = getelementptr inbounds nuw %struct.anon.1, ptr %15, i32 0, i32 0
  %17 = getelementptr inbounds [1 x i8], ptr %16, i64 0, i64 0
  %18 = getelementptr inbounds nuw %struct.RString, ptr %0, i32 0, i32 2
  %19 = getelementptr inbounds nuw %struct.anon, ptr %18, i32 0, i32 0
  store ptr %17, ptr %19, align 8, !tbaa !22
  br label %20

20:                                               ; preds = %9, %6
  ret void
}

; Function Attrs: inlinehint nounwind sspstrong uwtable
define internal i32 @rb_enc_mbminlen(ptr noundef %0) #4 {
  %2 = alloca ptr, align 8
  store ptr %0, ptr %2, align 8, !tbaa !19
  %3 = load ptr, ptr %2, align 8, !tbaa !19
  %4 = getelementptr inbounds nuw %struct.OnigEncodingTypeST, ptr %3, i32 0, i32 3
  %5 = load i32, ptr %4, align 4, !tbaa !90
  ret i32 %5
}

; Function Attrs: inlinehint nounwind sspstrong uwtable
define internal void @rb_vm_lock_leave(ptr noundef %0, ptr noundef %1, i32 noundef %2) #4 {
  %4 = alloca ptr, align 8
  %5 = alloca ptr, align 8
  %6 = alloca i32, align 4
  store ptr %0, ptr %4, align 8, !tbaa !40
  store ptr %1, ptr %5, align 8, !tbaa !33
  store i32 %2, ptr %6, align 4, !tbaa !21
  %7 = call zeroext i1 @rb_multi_ractor_p()
  br i1 %7, label %8, label %10

8:                                                ; preds = %3
  %9 = load ptr, ptr %4, align 8, !tbaa !40
  call void @rb_vm_lock_leave_body(ptr noundef %9)
  br label %10

10:                                               ; preds = %8, %3
  ret void
}

; Function Attrs: nounwind sspstrong uwtable
define internal i64 @next_id_base_with_lock(ptr noundef %0) #0 {
  %2 = alloca ptr, align 8
  %3 = alloca i64, align 8
  %4 = alloca i32, align 4
  %5 = alloca i64, align 8
  store ptr %0, ptr %2, align 8, !tbaa !7
  call void @llvm.lifetime.start.p0(i64 8, ptr %3) #24
  call void @llvm.lifetime.start.p0(i64 4, ptr %4) #24
  %6 = load ptr, ptr %2, align 8, !tbaa !7
  %7 = getelementptr inbounds nuw %struct.rb_symbols_t, ptr %6, i32 0, i32 0
  %8 = load i32, ptr %7, align 8, !tbaa !56
  %9 = add i32 %8, 1
  store i32 %9, ptr %4, align 4, !tbaa !21
  %10 = load i32, ptr %4, align 4, !tbaa !21
  %11 = icmp eq i32 %10, 0
  br i1 %11, label %12, label %13

12:                                               ; preds = %1
  store i64 -1, ptr %3, align 8, !tbaa !11
  br label %21

13:                                               ; preds = %1
  call void @llvm.lifetime.start.p0(i64 8, ptr %5) #24
  %14 = load ptr, ptr %2, align 8, !tbaa !7
  %15 = getelementptr inbounds nuw %struct.rb_symbols_t, ptr %14, i32 0, i32 0
  %16 = load i32, ptr %15, align 8, !tbaa !56
  %17 = add i32 %16, 1
  store i32 %17, ptr %15, align 8, !tbaa !56
  %18 = zext i32 %17 to i64
  store i64 %18, ptr %5, align 8, !tbaa !11
  %19 = load i64, ptr %5, align 8, !tbaa !11
  %20 = shl i64 %19, 4
  store i64 %20, ptr %3, align 8, !tbaa !11
  call void @llvm.lifetime.end.p0(i64 8, ptr %5) #24
  br label %21

21:                                               ; preds = %13, %12
  %22 = load i64, ptr %3, align 8, !tbaa !11
  call void @llvm.lifetime.end.p0(i64 4, ptr %4) #24
  call void @llvm.lifetime.end.p0(i64 8, ptr %3) #24
  ret i64 %22
}

; Function Attrs: inlinehint nounwind sspstrong uwtable
define internal void @rb_vm_lock_enter(ptr noundef %0, ptr noundef %1, i32 noundef %2) #4 {
  %4 = alloca ptr, align 8
  %5 = alloca ptr, align 8
  %6 = alloca i32, align 4
  store ptr %0, ptr %4, align 8, !tbaa !40
  store ptr %1, ptr %5, align 8, !tbaa !33
  store i32 %2, ptr %6, align 4, !tbaa !21
  %7 = call zeroext i1 @rb_multi_ractor_p()
  br i1 %7, label %8, label %10

8:                                                ; preds = %3
  %9 = load ptr, ptr %4, align 8, !tbaa !40
  call void @rb_vm_lock_enter_body(ptr noundef %9)
  br label %10

10:                                               ; preds = %8, %3
  ret void
}

; Function Attrs: inlinehint nounwind sspstrong uwtable
define internal ptr @rb_enc_name(ptr noundef %0) #4 {
  %2 = alloca ptr, align 8
  store ptr %0, ptr %2, align 8, !tbaa !19
  %3 = load ptr, ptr %2, align 8, !tbaa !19
  %4 = getelementptr inbounds nuw %struct.OnigEncodingTypeST, ptr %3, i32 0, i32 1
  %5 = load ptr, ptr %4, align 8, !tbaa !98
  ret ptr %5
}

; Function Attrs: inlinehint nounwind sspstrong uwtable
define internal ptr @RSTRING_PTR(i64 noundef %0) #4 {
  %2 = alloca i64, align 8
  %3 = alloca ptr, align 8
  %4 = alloca %struct.RString, align 8
  store i64 %0, ptr %2, align 8, !tbaa !11
  call void @llvm.lifetime.start.p0(i64 8, ptr %3) #24
  %5 = load i64, ptr %2, align 8, !tbaa !11
  call void @rbimpl_rstring_getmem(ptr dead_on_unwind writable sret(%struct.RString) align 8 %4, i64 noundef %5) #29
  %6 = getelementptr inbounds nuw %struct.RString, ptr %4, i32 0, i32 2
  %7 = getelementptr inbounds nuw %struct.anon, ptr %6, i32 0, i32 0
  %8 = load ptr, ptr %7, align 8, !tbaa !22
  store ptr %8, ptr %3, align 8, !tbaa !33
  %9 = load ptr, ptr %3, align 8, !tbaa !33
  call void @llvm.lifetime.end.p0(i64 8, ptr %3) #24
  ret ptr %9
}

; Function Attrs: inlinehint nounwind sspstrong uwtable
define internal zeroext i1 @rb_enc_asciicompat(ptr noundef %0) #4 {
  %2 = alloca i1, align 1
  %3 = alloca ptr, align 8
  store ptr %0, ptr %3, align 8, !tbaa !19
  %4 = load ptr, ptr %3, align 8, !tbaa !19
  %5 = call i32 @rb_enc_mbminlen(ptr noundef %4)
  %6 = icmp ne i32 %5, 1
  br i1 %6, label %7, label %8

7:                                                ; preds = %1
  store i1 false, ptr %2, align 1
  br label %14

8:                                                ; preds = %1
  %9 = load ptr, ptr %3, align 8, !tbaa !19
  %10 = call i32 @rb_enc_dummy_p(ptr noundef %9) #27
  %11 = icmp ne i32 %10, 0
  br i1 %11, label %12, label %13

12:                                               ; preds = %8
  store i1 false, ptr %2, align 1
  br label %14

13:                                               ; preds = %8
  store i1 true, ptr %2, align 1
  br label %14

14:                                               ; preds = %13, %12, %7
  %15 = load i1, ptr %2, align 1
  ret i1 %15
}

; Function Attrs: inlinehint nounwind sspstrong willreturn memory(read) uwtable
define internal i64 @RSTRING_LEN(i64 noundef %0) #8 {
  %2 = alloca i64, align 8
  store i64 %0, ptr %2, align 8, !tbaa !11
  %3 = load i64, ptr %2, align 8, !tbaa !11
  %4 = inttoptr i64 %3 to ptr
  %5 = getelementptr inbounds nuw %struct.RString, ptr %4, i32 0, i32 1
  %6 = load i64, ptr %5, align 8, !tbaa !96
  ret i64 %6
}

; Function Attrs: nounwind sspstrong uwtable
define internal i64 @next_id_base() #0 {
  %1 = alloca i64, align 8
  %2 = alloca ptr, align 8
  %3 = alloca i32, align 4
  call void @llvm.lifetime.start.p0(i64 8, ptr %1) #24
  call void @llvm.lifetime.start.p0(i64 8, ptr %2) #24
  store ptr @ruby_global_symbols, ptr %2, align 8, !tbaa !7
  call void @llvm.lifetime.start.p0(i64 4, ptr %3) #24
  call void @rb_vm_lock_enter(ptr noundef %3, ptr noundef @.str.5, i32 noundef 801)
  %4 = load ptr, ptr %2, align 8, !tbaa !7
  %5 = call i64 @next_id_base_with_lock(ptr noundef %4)
  store i64 %5, ptr %1, align 8, !tbaa !11
  call void @rb_vm_lock_leave(ptr noundef %3, ptr noundef @.str.5, i32 noundef 805)
  call void @llvm.lifetime.end.p0(i64 4, ptr %3) #24
  %6 = load i64, ptr %1, align 8, !tbaa !11
  call void @llvm.lifetime.end.p0(i64 8, ptr %2) #24
  call void @llvm.lifetime.end.p0(i64 8, ptr %1) #24
  ret i64 %6
}

; Function Attrs: nounwind sspstrong uwtable
define internal i32 @sym_check_asciionly(i64 noundef %0, i1 noundef zeroext %1) #0 {
  %3 = alloca i32, align 4
  %4 = alloca i64, align 8
  %5 = alloca i8, align 1
  store i64 %0, ptr %4, align 8, !tbaa !11
  %6 = zext i1 %1 to i8
  store i8 %6, ptr %5, align 1, !tbaa !42
  %7 = load i64, ptr %4, align 8, !tbaa !11
  %8 = call ptr @rb_enc_get(i64 noundef %7)
  %9 = call zeroext i1 @rb_enc_asciicompat(ptr noundef %8)
  br i1 %9, label %11, label %10

10:                                               ; preds = %2
  store i32 0, ptr %3, align 4
  br label %33

11:                                               ; preds = %2
  %12 = load i64, ptr %4, align 8, !tbaa !11
  %13 = call i32 @rb_enc_str_coderange(i64 noundef %12)
  switch i32 %13, label %32 [
    i32 3145728, label %14
    i32 1048576, label %31
  ]

14:                                               ; preds = %11
  %15 = load i8, ptr %5, align 1, !tbaa !42, !range !44, !noundef !45
  %16 = trunc i8 %15 to i1
  br i1 %16, label %17, label %25

17:                                               ; preds = %14
  %18 = load i64, ptr %4, align 8, !tbaa !11
  %19 = call ptr @RSTRING_PTR(i64 noundef %18)
  %20 = load i64, ptr %4, align 8, !tbaa !11
  %21 = call i64 @RSTRING_LEN(i64 noundef %20) #27
  %22 = load i64, ptr %4, align 8, !tbaa !11
  %23 = call ptr @rb_enc_get(i64 noundef %22)
  %24 = call i64 @rb_enc_str_new(ptr noundef %19, i64 noundef %21, ptr noundef %23)
  store i64 %24, ptr %4, align 8, !tbaa !11
  br label %25

25:                                               ; preds = %17, %14
  %26 = load i64, ptr @rb_eEncodingError, align 8, !tbaa !11
  %27 = load i64, ptr %4, align 8, !tbaa !11
  %28 = call ptr @rb_enc_get(i64 noundef %27)
  %29 = call ptr @rb_enc_name(ptr noundef %28)
  %30 = load i64, ptr %4, align 8, !tbaa !11
  call void (i64, ptr, ...) @rb_raise(i64 noundef %26, ptr noundef @.str.110, ptr noundef %29, i64 noundef %30) #26
  unreachable

31:                                               ; preds = %11
  store i32 1, ptr %3, align 4
  br label %33

32:                                               ; preds = %11
  store i32 0, ptr %3, align 4
  br label %33

33:                                               ; preds = %32, %31, %10
  %34 = load i32, ptr %3, align 4
  ret i32 %34
}

; Function Attrs: nounwind sspstrong uwtable
define internal i32 @rb_str_symname_type(i64 noundef %0, i32 noundef %1) #0 {
  %3 = alloca i64, align 8
  %4 = alloca i32, align 4
  %5 = alloca ptr, align 8
  %6 = alloca i64, align 8
  %7 = alloca i32, align 4
  %8 = alloca ptr, align 8
  %9 = alloca ptr, align 8
  store i64 %0, ptr %3, align 8, !tbaa !11
  store i32 %1, ptr %4, align 4, !tbaa !21
  call void @llvm.lifetime.start.p0(i64 8, ptr %5) #24
  %10 = call ptr @rb_string_value_ptr(ptr noundef %3)
  store ptr %10, ptr %5, align 8, !tbaa !33
  call void @llvm.lifetime.start.p0(i64 8, ptr %6) #24
  %11 = load i64, ptr %3, align 8, !tbaa !11
  %12 = call i64 @RSTRING_LEN(i64 noundef %11) #27
  store i64 %12, ptr %6, align 8, !tbaa !11
  call void @llvm.lifetime.start.p0(i64 4, ptr %7) #24
  %13 = load ptr, ptr %5, align 8, !tbaa !33
  %14 = load i64, ptr %6, align 8, !tbaa !11
  %15 = load i64, ptr %3, align 8, !tbaa !11
  %16 = call ptr @rb_enc_get(i64 noundef %15)
  %17 = load i32, ptr %4, align 4, !tbaa !21
  %18 = call i32 @rb_enc_symname_type(ptr noundef %13, i64 noundef %14, ptr noundef %16, i32 noundef %17)
  store i32 %18, ptr %7, align 4, !tbaa !21
  call void @llvm.lifetime.start.p0(i64 8, ptr %8) #24
  store ptr %3, ptr %8, align 8, !tbaa !46
  call void asm sideeffect "", "*m,~{dirflag},~{fpsr},~{flags}"(ptr elementtype(ptr) %8) #24, !srcloc !48
  %19 = load ptr, ptr %8, align 8, !tbaa !46
  store ptr %19, ptr %9, align 8, !tbaa !46
  call void @llvm.lifetime.end.p0(i64 8, ptr %8) #24
  %20 = load ptr, ptr %9, align 8, !tbaa !46
  %21 = load volatile i64, ptr %20, align 8, !tbaa !11
  %22 = load i32, ptr %7, align 4, !tbaa !21
  call void @llvm.lifetime.end.p0(i64 4, ptr %7) #24
  call void @llvm.lifetime.end.p0(i64 8, ptr %6) #24
  call void @llvm.lifetime.end.p0(i64 8, ptr %5) #24
  ret i32 %22
}

; Function Attrs: nounwind sspstrong uwtable
define internal i64 @intern_str(i64 noundef %0, i32 noundef %1) #0 {
  %3 = alloca i64, align 8
  %4 = alloca i32, align 4
  %5 = alloca i64, align 8
  %6 = alloca i64, align 8
  store i64 %0, ptr %3, align 8, !tbaa !11
  store i32 %1, ptr %4, align 4, !tbaa !21
  call void @llvm.lifetime.start.p0(i64 8, ptr %5) #24
  call void @llvm.lifetime.start.p0(i64 8, ptr %6) #24
  %7 = load i64, ptr %3, align 8, !tbaa !11
  %8 = call i32 @rb_str_symname_type(i64 noundef %7, i32 noundef 65279)
  %9 = sext i32 %8 to i64
  store i64 %9, ptr %5, align 8, !tbaa !11
  %10 = load i64, ptr %5, align 8, !tbaa !11
  %11 = icmp eq i64 %10, -1
  br i1 %11, label %12, label %13

12:                                               ; preds = %2
  store i64 14, ptr %5, align 8, !tbaa !11
  br label %13

13:                                               ; preds = %12, %2
  %14 = load i64, ptr %3, align 8, !tbaa !11
  %15 = call i32 @sym_check_asciionly(i64 noundef %14, i1 noundef zeroext false)
  %16 = icmp ne i32 %15, 0
  br i1 %16, label %17, label %27

17:                                               ; preds = %13
  %18 = load i32, ptr %4, align 4, !tbaa !21
  %19 = icmp ne i32 %18, 0
  br i1 %19, label %23, label %20

20:                                               ; preds = %17
  %21 = load i64, ptr %3, align 8, !tbaa !11
  %22 = call i64 @rb_str_dup(i64 noundef %21)
  store i64 %22, ptr %3, align 8, !tbaa !11
  br label %23

23:                                               ; preds = %20, %17
  %24 = load i64, ptr %3, align 8, !tbaa !11
  %25 = call nonnull ptr @rb_usascii_encoding()
  %26 = call i64 @rb_enc_associate(i64 noundef %24, ptr noundef %25)
  br label %27

27:                                               ; preds = %23, %13
  %28 = call i64 @next_id_base()
  store i64 %28, ptr %6, align 8, !tbaa !11
  %29 = icmp eq i64 %28, -1
  br i1 %29, label %30, label %35

30:                                               ; preds = %27
  %31 = load i64, ptr %3, align 8, !tbaa !11
  %32 = call i64 @rb_str_ellipsize(i64 noundef %31, i64 noundef 20)
  store i64 %32, ptr %3, align 8, !tbaa !11
  %33 = load i64, ptr @rb_eRuntimeError, align 8, !tbaa !11
  %34 = load i64, ptr %3, align 8, !tbaa !11
  call void (i64, ptr, ...) @rb_raise(i64 noundef %33, ptr noundef @.str.108, i64 noundef %34) #26
  unreachable

35:                                               ; preds = %27
  %36 = load i64, ptr %6, align 8, !tbaa !11
  %37 = load i64, ptr %5, align 8, !tbaa !11
  %38 = or i64 %37, %36
  store i64 %38, ptr %5, align 8, !tbaa !11
  %39 = load i64, ptr %5, align 8, !tbaa !11
  %40 = or i64 %39, 1
  store i64 %40, ptr %5, align 8, !tbaa !11
  %41 = load i64, ptr %5, align 8, !tbaa !11
  %42 = load i64, ptr %3, align 8, !tbaa !11
  %43 = call i64 @register_static_symid_str(i64 noundef %41, i64 noundef %42)
  call void @llvm.lifetime.end.p0(i64 8, ptr %6) #24
  call void @llvm.lifetime.end.p0(i64 8, ptr %5) #24
  ret i64 %43
}