; Function Attrs: nounwind sspstrong uwtable
define internal fastcc noundef i64 @intern_str(i64 noundef %0, i32 noundef range(i32 0, 2) %1) unnamed_addr #0 {
  %3 = alloca i32, align 4
  %4 = alloca i64, align 8
  %5 = alloca ptr, align 8
  call void @llvm.lifetime.start.p0(i64 8, ptr nonnull %4)
  store i64 %0, ptr %4, align 8, !tbaa !32
  %6 = call ptr @rb_string_value_ptr(ptr noundef nonnull %4) #19
  %7 = load i64, ptr %4, align 8, !tbaa !32
  %8 = inttoptr i64 %7 to ptr
  %9 = getelementptr inbounds nuw i8, ptr %8, i64 16
  %10 = load i64, ptr %9, align 8, !tbaa !35
  %11 = call ptr @rb_enc_get(i64 noundef %7) #19
  %12 = call i32 @rb_enc_symname_type(ptr noundef %6, i64 noundef %10, ptr noundef %11, i32 noundef 65279)
  call void @llvm.lifetime.start.p0(i64 8, ptr nonnull %5) #19
  store ptr %4, ptr %5, align 8, !tbaa !37
  call void asm sideeffect "", "*m,~{dirflag},~{fpsr},~{flags}"(ptr nonnull elementtype(ptr) %5) #19, !srcloc !39
  %13 = load ptr, ptr %5, align 8, !tbaa !37
  call void @llvm.lifetime.end.p0(i64 8, ptr nonnull %5) #19
  %14 = load volatile i64, ptr %13, align 8, !tbaa !32
  call void @llvm.lifetime.end.p0(i64 8, ptr nonnull %4)
  %15 = call ptr @rb_enc_get(i64 noundef %0) #19
  %16 = getelementptr i8, ptr %15, i64 20
  %.val.i.i = load i32, ptr %16, align 4, !tbaa !40
  %.not.i.i = icmp eq i32 %.val.i.i, 1
  br i1 %.not.i.i, label %rb_enc_asciicompat.exit.i, label %sym_check_asciionly.exit.thread

rb_enc_asciicompat.exit.i:                        ; preds = %2
  %17 = call i32 @rb_enc_dummy_p(ptr noundef nonnull readonly %15) #21
  %.not3.i.i = icmp eq i32 %17, 0
  br i1 %.not3.i.i, label %18, label %sym_check_asciionly.exit.thread

18:                                               ; preds = %rb_enc_asciicompat.exit.i
  %19 = call i32 @rb_enc_str_coderange(i64 noundef %0) #19
  switch i32 %19, label %sym_check_asciionly.exit.thread [
    i32 3145728, label %20
    i32 1048576, label %sym_check_asciionly.exit
  ]

20:                                               ; preds = %18
  %21 = load i64, ptr @rb_eEncodingError, align 8, !tbaa !32
  %22 = call ptr @rb_enc_get(i64 noundef %0) #19
  %23 = getelementptr i8, ptr %22, i64 8
  %.val.i = load ptr, ptr %23, align 8, !tbaa !43
  call void (i64, ptr, ...) @rb_raise(i64 noundef %21, ptr noundef nonnull @.str.110, ptr noundef %.val.i, i64 noundef %0) #20
  unreachable

sym_check_asciionly.exit:                         ; preds = %18
  %.not14 = icmp eq i32 %1, 0
  br i1 %.not14, label %24, label %26

24:                                               ; preds = %sym_check_asciionly.exit
  %25 = call i64 @rb_str_dup(i64 noundef %0) #19
  br label %26

26:                                               ; preds = %24, %sym_check_asciionly.exit
  %.1 = phi i64 [ %0, %sym_check_asciionly.exit ], [ %25, %24 ]
  %27 = call nonnull ptr @rb_usascii_encoding() #19
  %28 = call i64 @rb_enc_associate(i64 noundef %.1, ptr noundef nonnull %27) #19
  br label %sym_check_asciionly.exit.thread

sym_check_asciionly.exit.thread:                  ; preds = %18, %2, %rb_enc_asciicompat.exit.i, %26
  %.0 = phi i64 [ %.1, %26 ], [ %0, %rb_enc_asciicompat.exit.i ], [ %0, %2 ], [ %0, %18 ]
  call void @llvm.lifetime.start.p0(i64 4, ptr nonnull %3) #19
  %29 = load ptr, ptr @ruby_single_main_ractor, align 8, !tbaa !24
  %.not.i.i.i = icmp eq ptr %29, null
  br i1 %.not.i.i.i, label %30, label %rb_vm_lock_enter.exit.i

30:                                               ; preds = %sym_check_asciionly.exit.thread
  call void @rb_vm_lock_enter_body(ptr noundef nonnull %3) #19
  br label %rb_vm_lock_enter.exit.i

rb_vm_lock_enter.exit.i:                          ; preds = %30, %sym_check_asciionly.exit.thread
  %31 = load i32, ptr @ruby_global_symbols, align 8, !tbaa !34
  %32 = add i32 %31, 1
  %33 = icmp eq i32 %32, 0
  br i1 %33, label %next_id_base_with_lock.exit.i, label %34

34:                                               ; preds = %rb_vm_lock_enter.exit.i
  store i32 %32, ptr @ruby_global_symbols, align 8, !tbaa !34
  %35 = zext i32 %32 to i64
  %36 = shl nuw nsw i64 %35, 4
  br label %next_id_base_with_lock.exit.i

next_id_base_with_lock.exit.i:                    ; preds = %34, %rb_vm_lock_enter.exit.i
  %.0.i.i = phi i64 [ %36, %34 ], [ -1, %rb_vm_lock_enter.exit.i ]
  %37 = load ptr, ptr @ruby_single_main_ractor, align 8, !tbaa !24
  %.not.i.i1.i = icmp eq ptr %37, null
  br i1 %.not.i.i1.i, label %38, label %next_id_base.exit

38:                                               ; preds = %next_id_base_with_lock.exit.i
  call void @rb_vm_lock_leave_body(ptr noundef nonnull %3) #19
  br label %next_id_base.exit

next_id_base.exit:                                ; preds = %next_id_base_with_lock.exit.i, %38
  call void @llvm.lifetime.end.p0(i64 4, ptr nonnull %3) #19
  %39 = icmp eq i64 %.0.i.i, -1
  br i1 %39, label %40, label %43

40:                                               ; preds = %next_id_base.exit
  %41 = call i64 @rb_str_ellipsize(i64 noundef %.0, i64 noundef 20) #19
  %42 = load i64, ptr @rb_eRuntimeError, align 8, !tbaa !32
  call void (i64, ptr, ...) @rb_raise(i64 noundef %42, ptr noundef nonnull @.str.108, i64 noundef %41) #20
  unreachable

43:                                               ; preds = %next_id_base.exit
  %44 = icmp eq i32 %12, -1
  %45 = or i32 %12, 1
  %46 = select i1 %44, i32 15, i32 %45
  %47 = sext i32 %46 to i64
  %48 = or i64 %.0.i.i, %47
  %49 = call fastcc i64 @register_static_symid_str(i64 noundef %48, i64 noundef %.0)
  ret i64 %48
}